target datalayout = "e-m:e-p270:32:32-p271:32:32-p272:64:64-i64:64-i128:128-f80:128-n8:16:32:64-S128"
target triple = "x86_64-pc-linux-gnu"

%"struct.faiss::ProductQuantizer" = type { %"struct.faiss::Quantizer", i64, i64, i64, i64, i8, i32, %"struct.faiss::ClusteringParameters", ptr, %"class.std::vector.0", %"class.std::vector.0", %"class.std::vector.0", %"class.std::vector.0" }
%"struct.faiss::Quantizer" = type { ptr, i64, i64 }
%"struct.faiss::ClusteringParameters" = type <{ i32, i32, i8, i8, i8, i8, i8, [3 x i8], i32, i32, i32, [4 x i8], i64, i8, i8, [6 x i8] }>
%"class.std::vector.0" = type { %"struct.std::_Vector_base.1" }
%"struct.std::_Vector_base.1" = type { %"struct.std::_Vector_base<float, std::allocator<float>>::_Vector_impl" }
%"struct.std::_Vector_base<float, std::allocator<float>>::_Vector_impl" = type { %"struct.std::_Vector_base<float, std::allocator<float>>::_Vector_impl_data" }
%"struct.std::_Vector_base<float, std::allocator<float>>::_Vector_impl_data" = type { ptr, ptr, ptr }
%"struct.faiss::FlatCodesDistanceComputer" = type { %"struct.faiss::DistanceComputer", ptr, i64 }
%"struct.faiss::DistanceComputer" = type { ptr }
%"struct.faiss::(anonymous namespace)::PQDistanceComputer.9" = type { %"struct.faiss::FlatCodesDistanceComputer", i64, i32, i64, ptr, ptr, %"class.std::vector.0", i64 }
%"struct.faiss::PQDecoderGeneric" = type <{ ptr, i8, [3 x i8], i32, i64, i8, [7 x i8] }>

; Function Attrs: inlinehint mustprogress nounwind uwtable
define linkonce_odr noundef i64 @_ZN5faiss16PQDecoderGeneric6decodeEv(ptr noundef nonnull align 8 dereferenceable(25) %0) #0 comdat align 2 {
  %2 = alloca ptr, align 8
  %3 = alloca i64, align 8
  %4 = alloca i64, align 8
  %5 = alloca i32, align 4
  store ptr %0, ptr %2, align 8, !tbaa !225
  %6 = load ptr, ptr %2, align 8
  %7 = getelementptr inbounds nuw %"struct.faiss::PQDecoderGeneric", ptr %6, i32 0, i32 1
  %8 = load i8, ptr %7, align 8, !tbaa !228
  %9 = zext i8 %8 to i32
  %10 = icmp eq i32 %9, 0
  br i1 %10, label %11, label %16

11:                                               ; preds = %1
  %12 = getelementptr inbounds nuw %"struct.faiss::PQDecoderGeneric", ptr %6, i32 0, i32 0
  %13 = load ptr, ptr %12, align 8, !tbaa !227
  %14 = load i8, ptr %13, align 1, !tbaa !99
  %15 = getelementptr inbounds nuw %"struct.faiss::PQDecoderGeneric", ptr %6, i32 0, i32 5
  store i8 %14, ptr %15, align 8, !tbaa !230
  br label %16

16:                                               ; preds = %11, %1
  call void @llvm.lifetime.start.p0(i64 8, ptr %3) #20
  %17 = getelementptr inbounds nuw %"struct.faiss::PQDecoderGeneric", ptr %6, i32 0, i32 5
  %18 = load i8, ptr %17, align 8, !tbaa !230
  %19 = zext i8 %18 to i32
  %20 = getelementptr inbounds nuw %"struct.faiss::PQDecoderGeneric", ptr %6, i32 0, i32 1
  %21 = load i8, ptr %20, align 8, !tbaa !228
  %22 = zext i8 %21 to i32
  %23 = ashr i32 %19, %22
  %24 = sext i32 %23 to i64
  store i64 %24, ptr %3, align 8, !tbaa !11
  %25 = getelementptr inbounds nuw %"struct.faiss::PQDecoderGeneric", ptr %6, i32 0, i32 1
  %26 = load i8, ptr %25, align 8, !tbaa !228
  %27 = zext i8 %26 to i32
  %28 = getelementptr inbounds nuw %"struct.faiss::PQDecoderGeneric", ptr %6, i32 0, i32 3
  %29 = load i32, ptr %28, align 4, !tbaa !222
  %30 = add nsw i32 %27, %29
  %31 = icmp sge i32 %30, 8
  br i1 %31, label %32, label %98

32:                                               ; preds = %16
  call void @llvm.lifetime.start.p0(i64 8, ptr %4) #20
  %33 = getelementptr inbounds nuw %"struct.faiss::PQDecoderGeneric", ptr %6, i32 0, i32 1
  %34 = load i8, ptr %33, align 8, !tbaa !228
  %35 = zext i8 %34 to i32
  %36 = sub nsw i32 8, %35
  %37 = sext i32 %36 to i64
  store i64 %37, ptr %4, align 8, !tbaa !11
  %38 = getelementptr inbounds nuw %"struct.faiss::PQDecoderGeneric", ptr %6, i32 0, i32 0
  %39 = load ptr, ptr %38, align 8, !tbaa !227
  %40 = getelementptr inbounds nuw i8, ptr %39, i32 1
  store ptr %40, ptr %38, align 8, !tbaa !227
  call void @llvm.lifetime.start.p0(i64 4, ptr %5) #20
  store i32 0, ptr %5, align 4, !tbaa !36
  br label %41

41:                                               ; preds = %65, %32
  %42 = load i32, ptr %5, align 4, !tbaa !36
  %43 = getelementptr inbounds nuw %"struct.faiss::PQDecoderGeneric", ptr %6, i32 0, i32 3
  %44 = load i32, ptr %43, align 4, !tbaa !222
  %45 = getelementptr inbounds nuw %"struct.faiss::PQDecoderGeneric", ptr %6, i32 0, i32 1
  %46 = load i8, ptr %45, align 8, !tbaa !228
  %47 = zext i8 %46 to i32
  %48 = sub nsw i32 8, %47
  %49 = sub nsw i32 %44, %48
  %50 = sdiv i32 %49, 8
  %51 = icmp slt i32 %42, %50
  br i1 %51, label %53, label %52

52:                                               ; preds = %41
  call void @llvm.lifetime.end.p0(i64 4, ptr %5) #20
  br label %68

53:                                               ; preds = %41
  %54 = getelementptr inbounds nuw %"struct.faiss::PQDecoderGeneric", ptr %6, i32 0, i32 0
  %55 = load ptr, ptr %54, align 8, !tbaa !227
  %56 = getelementptr inbounds nuw i8, ptr %55, i32 1
  store ptr %56, ptr %54, align 8, !tbaa !227
  %57 = load i8, ptr %55, align 1, !tbaa !99
  %58 = zext i8 %57 to i64
  %59 = load i64, ptr %4, align 8, !tbaa !11
  %60 = shl i64 %58, %59
  %61 = load i64, ptr %3, align 8, !tbaa !11
  %62 = or i64 %61, %60
  store i64 %62, ptr %3, align 8, !tbaa !11
  %63 = load i64, ptr %4, align 8, !tbaa !11
  %64 = add i64 %63, 8
  store i64 %64, ptr %4, align 8, !tbaa !11
  br label %65

65:                                               ; preds = %53
  %66 = load i32, ptr %5, align 4, !tbaa !36
  %67 = add nsw i32 %66, 1
  store i32 %67, ptr %5, align 4, !tbaa !36
  br label %41, !llvm.loop !231

68:                                               ; preds = %52
  %69 = getelementptr inbounds nuw %"struct.faiss::PQDecoderGeneric", ptr %6, i32 0, i32 3
  %70 = load i32, ptr %69, align 4, !tbaa !222
  %71 = getelementptr inbounds nuw %"struct.faiss::PQDecoderGeneric", ptr %6, i32 0, i32 1
  %72 = load i8, ptr %71, align 8, !tbaa !228
  %73 = zext i8 %72 to i32
  %74 = add nsw i32 %73, %70
  %75 = trunc i32 %74 to i8
  store i8 %75, ptr %71, align 8, !tbaa !228
  %76 = getelementptr inbounds nuw %"struct.faiss::PQDecoderGeneric", ptr %6, i32 0, i32 1
  %77 = load i8, ptr %76, align 8, !tbaa !228
  %78 = zext i8 %77 to i32
  %79 = and i32 %78, 7
  %80 = trunc i32 %79 to i8
  store i8 %80, ptr %76, align 8, !tbaa !228
  %81 = getelementptr inbounds nuw %"struct.faiss::PQDecoderGeneric", ptr %6, i32 0, i32 1
  %82 = load i8, ptr %81, align 8, !tbaa !228
  %83 = zext i8 %82 to i32
  %84 = icmp sgt i32 %83, 0
  br i1 %84, label %85, label %97

85:                                               ; preds = %68
  %86 = getelementptr inbounds nuw %"struct.faiss::PQDecoderGeneric", ptr %6, i32 0, i32 0
  %87 = load ptr, ptr %86, align 8, !tbaa !227
  %88 = load i8, ptr %87, align 1, !tbaa !99
  %89 = getelementptr inbounds nuw %"struct.faiss::PQDecoderGeneric", ptr %6, i32 0, i32 5
  store i8 %88, ptr %89, align 8, !tbaa !230
  %90 = getelementptr inbounds nuw %"struct.faiss::PQDecoderGeneric", ptr %6, i32 0, i32 5
  %91 = load i8, ptr %90, align 8, !tbaa !230
  %92 = zext i8 %91 to i64
  %93 = load i64, ptr %4, align 8, !tbaa !11
  %94 = shl i64 %92, %93
  %95 = load i64, ptr %3, align 8, !tbaa !11
  %96 = or i64 %95, %94
  store i64 %96, ptr %3, align 8, !tbaa !11
  br label %97

97:                                               ; preds = %85, %68
  call void @llvm.lifetime.end.p0(i64 8, ptr %4) #20
  br label %106

98:                                               ; preds = %16
  %99 = getelementptr inbounds nuw %"struct.faiss::PQDecoderGeneric", ptr %6, i32 0, i32 3
  %100 = load i32, ptr %99, align 4, !tbaa !222
  %101 = getelementptr inbounds nuw %"struct.faiss::PQDecoderGeneric", ptr %6, i32 0, i32 1
  %102 = load i8, ptr %101, align 8, !tbaa !228
  %103 = zext i8 %102 to i32
  %104 = add nsw i32 %103, %100
  %105 = trunc i32 %104 to i8
  store i8 %105, ptr %101, align 8, !tbaa !228
  br label %106

106:                                              ; preds = %98, %97
  %107 = load i64, ptr %3, align 8, !tbaa !11
  %108 = getelementptr inbounds nuw %"struct.faiss::PQDecoderGeneric", ptr %6, i32 0, i32 4
  %109 = load i64, ptr %108, align 8, !tbaa !229
  %110 = and i64 %107, %109
  call void @llvm.lifetime.end.p0(i64 8, ptr %3) #20
  ret i64 %110
}

; Function Attrs: inlinehint mustprogress nounwind uwtable
define linkonce_odr void @_ZN5faiss16PQDecoderGenericC2EPKhi(ptr noundef nonnull align 8 dereferenceable(25) %0, ptr noundef %1, i32 noundef %2) unnamed_addr #0 comdat align 2 {
  %4 = alloca ptr, align 8
  %5 = alloca ptr, align 8
  %6 = alloca i32, align 4
  store ptr %0, ptr %4, align 8, !tbaa !225
  store ptr %1, ptr %5, align 8, !tbaa !97
  store i32 %2, ptr %6, align 4, !tbaa !36
  %7 = load ptr, ptr %4, align 8
  %8 = getelementptr inbounds nuw %"struct.faiss::PQDecoderGeneric", ptr %7, i32 0, i32 0
  %9 = load ptr, ptr %5, align 8, !tbaa !97
  store ptr %9, ptr %8, align 8, !tbaa !227
  %10 = getelementptr inbounds nuw %"struct.faiss::PQDecoderGeneric", ptr %7, i32 0, i32 1
  store i8 0, ptr %10, align 8, !tbaa !228
  %11 = getelementptr inbounds nuw %"struct.faiss::PQDecoderGeneric", ptr %7, i32 0, i32 3
  %12 = load i32, ptr %6, align 4, !tbaa !36
  store i32 %12, ptr %11, align 4, !tbaa !222
  %13 = getelementptr inbounds nuw %"struct.faiss::PQDecoderGeneric", ptr %7, i32 0, i32 4
  %14 = load i32, ptr %6, align 4, !tbaa !36
  %15 = zext i32 %14 to i64
  %16 = shl i64 1, %15
  %17 = sub i64 %16, 1
  store i64 %17, ptr %13, align 8, !tbaa !229
  %18 = getelementptr inbounds nuw %"struct.faiss::PQDecoderGeneric", ptr %7, i32 0, i32 5
  store i8 0, ptr %18, align 8, !tbaa !230
  ret void
}

; Function Attrs: inlinehint mustprogress uwtable
define linkonce_odr noundef float @_ZN5faiss28distance_single_code_genericINS_16PQDecoderGenericEEEfmmPKfPKh(i64 noundef %0, i64 noundef %1, ptr noundef %2, ptr noundef %3) #4 comdat {
  %5 = alloca i64, align 8
  %6 = alloca i64, align 8
  %7 = alloca ptr, align 8
  %8 = alloca ptr, align 8
  %9 = alloca %"struct.faiss::PQDecoderGeneric", align 8
  %10 = alloca i64, align 8
  %11 = alloca ptr, align 8
  %12 = alloca float, align 4
  %13 = alloca i64, align 8
  store i64 %0, ptr %5, align 8, !tbaa !11
  store i64 %1, ptr %6, align 8, !tbaa !11
  store ptr %2, ptr %7, align 8, !tbaa !13
  store ptr %3, ptr %8, align 8, !tbaa !97
  call void @llvm.lifetime.start.p0(i64 32, ptr %9) #20
  %14 = load ptr, ptr %8, align 8, !tbaa !97
  %15 = load i64, ptr %6, align 8, !tbaa !11
  %16 = trunc i64 %15 to i32
  call void @_ZN5faiss16PQDecoderGenericC2EPKhi(ptr noundef nonnull align 8 dereferenceable(25) %9, ptr noundef %14, i32 noundef %16)
  call void @llvm.lifetime.start.p0(i64 8, ptr %10) #20
  %17 = load i64, ptr %6, align 8, !tbaa !11
  %18 = trunc i64 %17 to i32
  %19 = shl i32 1, %18
  %20 = sext i32 %19 to i64
  store i64 %20, ptr %10, align 8, !tbaa !11
  call void @llvm.lifetime.start.p0(i64 8, ptr %11) #20
  %21 = load ptr, ptr %7, align 8, !tbaa !13
  store ptr %21, ptr %11, align 8, !tbaa !13
  call void @llvm.lifetime.start.p0(i64 4, ptr %12) #20
  store float 0.000000e+00, ptr %12, align 4, !tbaa !98
  call void @llvm.lifetime.start.p0(i64 8, ptr %13) #20
  store i64 0, ptr %13, align 8, !tbaa !11
  br label %22

22:                                               ; preds = %37, %4
  %23 = load i64, ptr %13, align 8, !tbaa !11
  %24 = load i64, ptr %5, align 8, !tbaa !11
  %25 = icmp ult i64 %23, %24
  br i1 %25, label %27, label %26

26:                                               ; preds = %22
  call void @llvm.lifetime.end.p0(i64 8, ptr %13) #20
  br label %40

27:                                               ; preds = %22
  %28 = load ptr, ptr %11, align 8, !tbaa !13
  %29 = call noundef i64 @_ZN5faiss16PQDecoderGeneric6decodeEv(ptr noundef nonnull align 8 dereferenceable(25) %9)
  %30 = getelementptr inbounds nuw float, ptr %28, i64 %29
  %31 = load float, ptr %30, align 4, !tbaa !98
  %32 = load float, ptr %12, align 4, !tbaa !98
  %33 = fadd float %32, %31
  store float %33, ptr %12, align 4, !tbaa !98
  %34 = load i64, ptr %10, align 8, !tbaa !11
  %35 = load ptr, ptr %11, align 8, !tbaa !13
  %36 = getelementptr inbounds nuw float, ptr %35, i64 %34
  store ptr %36, ptr %11, align 8, !tbaa !13
  br label %37

37:                                               ; preds = %27
  %38 = load i64, ptr %13, align 8, !tbaa !11
  %39 = add i64 %38, 1
  store i64 %39, ptr %13, align 8, !tbaa !11
  br label %22, !llvm.loop !232

40:                                               ; preds = %26
  %41 = load float, ptr %12, align 4, !tbaa !98
  call void @llvm.lifetime.end.p0(i64 4, ptr %12) #20
  call void @llvm.lifetime.end.p0(i64 8, ptr %11) #20
  call void @llvm.lifetime.end.p0(i64 8, ptr %10) #20
  call void @llvm.lifetime.end.p0(i64 32, ptr %9) #20
  ret float %41
}

; Function Attrs: mustprogress nounwind uwtable
define linkonce_odr noundef ptr @_ZNKSt6vectorIfSaIfEE11_M_data_ptrIfEEPT_S4_(ptr noundef nonnull align 8 dereferenceable(24) %0, ptr noundef %1) #3 comdat align 2 {
  %3 = alloca ptr, align 8
  %4 = alloca ptr, align 8
  store ptr %0, ptr %3, align 8, !tbaa !123
  store ptr %1, ptr %4, align 8, !tbaa !13
  %5 = load ptr, ptr %4, align 8, !tbaa !13
  ret ptr %5
}

; Function Attrs: inlinehint mustprogress uwtable
define linkonce_odr noundef float @_ZN5faiss20distance_single_codeINS_16PQDecoderGenericEEEfmmPKfPKh(i64 noundef %0, i64 noundef %1, ptr noundef %2, ptr noundef %3) #4 comdat {
  %5 = alloca i64, align 8
  %6 = alloca i64, align 8
  %7 = alloca ptr, align 8
  %8 = alloca ptr, align 8
  store i64 %0, ptr %5, align 8, !tbaa !11
  store i64 %1, ptr %6, align 8, !tbaa !11
  store ptr %2, ptr %7, align 8, !tbaa !13
  store ptr %3, ptr %8, align 8, !tbaa !97
  %9 = load i64, ptr %5, align 8, !tbaa !11
  %10 = load i64, ptr %6, align 8, !tbaa !11
  %11 = load ptr, ptr %7, align 8, !tbaa !13
  %12 = load ptr, ptr %8, align 8, !tbaa !97
  %13 = call noundef float @_ZN5faiss28distance_single_code_genericINS_16PQDecoderGenericEEEfmmPKfPKh(i64 noundef %9, i64 noundef %10, ptr noundef %11, ptr noundef %12)
  ret float %13
}

; Function Attrs: mustprogress nounwind uwtable
define linkonce_odr noundef ptr @_ZNSt6vectorIfSaIfEE4dataEv(ptr noundef nonnull align 8 dereferenceable(24) %0) #3 comdat align 2 {
  %2 = alloca ptr, align 8
  store ptr %0, ptr %2, align 8, !tbaa !123
  %3 = load ptr, ptr %2, align 8
  %4 = getelementptr inbounds nuw %"struct.std::_Vector_base.1", ptr %3, i32 0, i32 0
  %5 = getelementptr inbounds nuw %"struct.std::_Vector_base<float, std::allocator<float>>::_Vector_impl_data", ptr %4, i32 0, i32 0
  %6 = load ptr, ptr %5, align 8, !tbaa !125
  %7 = call noundef ptr @_ZNKSt6vectorIfSaIfEE11_M_data_ptrIfEEPT_S4_(ptr noundef nonnull align 8 dereferenceable(24) %3, ptr noundef %6) #20
  ret ptr %7
}

; Function Attrs: mustprogress uwtable
define internal noundef float @_ZN5faiss12_GLOBAL__N_118PQDistanceComputerINS_16PQDecoderGenericEE16distance_to_codeEPKh(ptr noundef nonnull align 8 dereferenceable(96) %0, ptr noundef %1) unnamed_addr #1 align 2 {
  %3 = alloca ptr, align 8
  %4 = alloca ptr, align 8
  %5 = alloca float, align 4
  store ptr %0, ptr %3, align 8, !tbaa !169
  store ptr %1, ptr %4, align 8, !tbaa !97
  %6 = load ptr, ptr %3, align 8
  %7 = getelementptr inbounds nuw %"struct.faiss::(anonymous namespace)::PQDistanceComputer.9", ptr %6, i32 0, i32 7
  %8 = load i64, ptr %7, align 8, !tbaa !177
  %9 = add i64 %8, 1
  store i64 %9, ptr %7, align 8, !tbaa !177
  call void @llvm.lifetime.start.p0(i64 4, ptr %5) #20
  %10 = getelementptr inbounds nuw %"struct.faiss::(anonymous namespace)::PQDistanceComputer.9", ptr %6, i32 0, i32 4
  %11 = load ptr, ptr %10, align 8, !tbaa !171
  %12 = getelementptr inbounds nuw %"struct.faiss::ProductQuantizer", ptr %11, i32 0, i32 1
  %13 = load i64, ptr %12, align 8, !tbaa !153
  %14 = getelementptr inbounds nuw %"struct.faiss::(anonymous namespace)::PQDistanceComputer.9", ptr %6, i32 0, i32 4
  %15 = load ptr, ptr %14, align 8, !tbaa !171
  %16 = getelementptr inbounds nuw %"struct.faiss::ProductQuantizer", ptr %15, i32 0, i32 2
  %17 = load i64, ptr %16, align 8, !tbaa !184
  %18 = getelementptr inbounds nuw %"struct.faiss::(anonymous namespace)::PQDistanceComputer.9", ptr %6, i32 0, i32 6
  %19 = call noundef ptr @_ZNSt6vectorIfSaIfEE4dataEv(ptr noundef nonnull align 8 dereferenceable(24) %18) #20
  %20 = load ptr, ptr %4, align 8, !tbaa !97
  %21 = call noundef float @_ZN5faiss20distance_single_codeINS_16PQDecoderGenericEEEfmmPKfPKh(i64 noundef %13, i64 noundef %17, ptr noundef %19, ptr noundef %20)
  store float %21, ptr %5, align 4, !tbaa !98
  %22 = load float, ptr %5, align 4, !tbaa !98
  call void @llvm.lifetime.end.p0(i64 4, ptr %5) #20
  ret float %22
}