; Function Attrs: mustprogress nofree norecurse nosync nounwind memory(read, argmem: readwrite, inaccessiblemem: none) uwtable
define internal noundef float @_ZN5faiss12_GLOBAL__N_118PQDistanceComputerINS_16PQDecoderGenericEE16distance_to_codeEPKh(ptr noundef nonnull align 8 captures(none) dereferenceable(96) %0, ptr noundef readonly captures(none) %1) unnamed_addr #12 align 2 {
  %3 = getelementptr inbounds nuw i8, ptr %0, i64 88
  %4 = load i64, ptr %3, align 8, !tbaa !151
  %5 = add i64 %4, 1
  store i64 %5, ptr %3, align 8, !tbaa !151
  %6 = getelementptr inbounds nuw i8, ptr %0, i64 48
  %7 = load ptr, ptr %6, align 8, !tbaa !149
  %8 = getelementptr inbounds nuw i8, ptr %7, i64 24
  %9 = load i64, ptr %8, align 8, !tbaa !111
  %10 = getelementptr inbounds nuw i8, ptr %7, i64 32
  %11 = load i64, ptr %10, align 8, !tbaa !136
  %12 = trunc i64 %11 to i32
  %13 = and i64 %11, 4294967295
  %notmask.i.i.i = shl nsw i64 -1, %13
  %14 = xor i64 %notmask.i.i.i, -1
  %15 = shl nuw i32 1, %12
  %16 = sext i32 %15 to i64
  %.not.i.i = icmp eq i64 %9, 0
  br i1 %.not.i.i, label %_ZN5faiss20distance_single_codeINS_16PQDecoderGenericEEEfmmPKfPKh.exit, label %.lr.ph.i.i

.lr.ph.i.i:                                       ; preds = %2
  %17 = getelementptr inbounds nuw i8, ptr %0, i64 64
  %18 = load ptr, ptr %17, align 8, !tbaa !7
  %19 = trunc i64 %11 to i8
  br label %20

20:                                               ; preds = %_ZN5faiss16PQDecoderGeneric6decodeEv.exit.i.i, %.lr.ph.i.i
  %.022.i.i = phi i64 [ 0, %.lr.ph.i.i ], [ %61, %_ZN5faiss16PQDecoderGeneric6decodeEv.exit.i.i ]
  %.01121.i.i = phi float [ 0.000000e+00, %.lr.ph.i.i ], [ %59, %_ZN5faiss16PQDecoderGeneric6decodeEv.exit.i.i ]
  %.01220.i.i = phi ptr [ %18, %.lr.ph.i.i ], [ %60, %_ZN5faiss16PQDecoderGeneric6decodeEv.exit.i.i ]
  %.sroa.0.019.i.i = phi ptr [ %1, %.lr.ph.i.i ], [ %.sroa.0.2.i.i, %_ZN5faiss16PQDecoderGeneric6decodeEv.exit.i.i ]
  %.sroa.7.018.i.i = phi i8 [ 0, %.lr.ph.i.i ], [ %.sroa.7.1.i.i, %_ZN5faiss16PQDecoderGeneric6decodeEv.exit.i.i ]
  %.sroa.15.017.i.i = phi i8 [ 0, %.lr.ph.i.i ], [ %.sroa.15.2.i.i, %_ZN5faiss16PQDecoderGeneric6decodeEv.exit.i.i ]
  %21 = icmp eq i8 %.sroa.7.018.i.i, 0
  br i1 %21, label %22, label %._crit_edge16.i.i.i

22:                                               ; preds = %20
  %23 = load i8, ptr %.sroa.0.019.i.i, align 1, !tbaa !44
  br label %._crit_edge16.i.i.i

._crit_edge16.i.i.i:                              ; preds = %22, %20
  %.sroa.15.1.i.i = phi i8 [ %23, %22 ], [ %.sroa.15.017.i.i, %20 ]
  %24 = zext i8 %.sroa.15.1.i.i to i32
  %25 = zext i8 %.sroa.7.018.i.i to i32
  %26 = lshr i32 %24, %25
  %27 = zext nneg i32 %26 to i64
  %28 = add i32 %25, %12
  %29 = icmp sgt i32 %28, 7
  br i1 %29, label %30, label %54

30:                                               ; preds = %._crit_edge16.i.i.i
  %31 = sub nsw i32 8, %25
  %32 = sext i32 %31 to i64
  %33 = getelementptr inbounds nuw i8, ptr %.sroa.0.019.i.i, i64 1
  %34 = add nsw i32 %28, -8
  %35 = lshr i32 %34, 3
  %36 = icmp samesign ugt i32 %28, 15
  br i1 %36, label %.lr.ph.i.i.i, label %._crit_edge.i.i.i

._crit_edge.i.loopexit.i.i:                       ; preds = %.lr.ph.i.i.i
  %37 = add nsw i32 %35, -1
  %38 = zext i32 %37 to i64
  %scevgep.i.i = getelementptr i8, ptr %.sroa.0.019.i.i, i64 2
  %scevgep26.i.i = getelementptr i8, ptr %scevgep.i.i, i64 %38
  br label %._crit_edge.i.i.i

._crit_edge.i.i.i:                                ; preds = %._crit_edge.i.loopexit.i.i, %30
  %.sroa.0.1.i.i = phi ptr [ %33, %30 ], [ %scevgep26.i.i, %._crit_edge.i.loopexit.i.i ]
  %.09.lcssa.i.i.i = phi i64 [ %27, %30 ], [ %46, %._crit_edge.i.loopexit.i.i ]
  %.08.lcssa.i.i.i = phi i64 [ %32, %30 ], [ %47, %._crit_edge.i.loopexit.i.i ]
  %39 = add i8 %.sroa.7.018.i.i, %19
  %40 = and i8 %39, 7
  %.not.i.i.i = icmp eq i8 %40, 0
  br i1 %.not.i.i.i, label %_ZN5faiss16PQDecoderGeneric6decodeEv.exit.i.i, label %49

.lr.ph.i.i.i:                                     ; preds = %30, %.lr.ph.i.i.i
  %.013.i.i.i = phi i32 [ %48, %.lr.ph.i.i.i ], [ 0, %30 ]
  %.0812.i.i.i = phi i64 [ %47, %.lr.ph.i.i.i ], [ %32, %30 ]
  %.0911.i.i.i = phi i64 [ %46, %.lr.ph.i.i.i ], [ %27, %30 ]
  %41 = phi ptr [ %42, %.lr.ph.i.i.i ], [ %33, %30 ]
  %42 = getelementptr inbounds nuw i8, ptr %41, i64 1
  %43 = load i8, ptr %41, align 1, !tbaa !44
  %44 = zext i8 %43 to i64
  %45 = shl i64 %44, %.0812.i.i.i
  %46 = or i64 %45, %.0911.i.i.i
  %47 = add nsw i64 %.0812.i.i.i, 8
  %48 = add nuw nsw i32 %.013.i.i.i, 1
  %exitcond.not.i.i.i = icmp eq i32 %48, %35
  br i1 %exitcond.not.i.i.i, label %._crit_edge.i.loopexit.i.i, label %.lr.ph.i.i.i, !llvm.loop !152

49:                                               ; preds = %._crit_edge.i.i.i
  %50 = load i8, ptr %.sroa.0.1.i.i, align 1, !tbaa !44
  %51 = zext i8 %50 to i64
  %52 = shl i64 %51, %.08.lcssa.i.i.i
  %53 = or i64 %52, %.09.lcssa.i.i.i
  br label %_ZN5faiss16PQDecoderGeneric6decodeEv.exit.i.i

54:                                               ; preds = %._crit_edge16.i.i.i
  %55 = trunc i32 %28 to i8
  br label %_ZN5faiss16PQDecoderGeneric6decodeEv.exit.i.i

_ZN5faiss16PQDecoderGeneric6decodeEv.exit.i.i:    ; preds = %54, %49, %._crit_edge.i.i.i
  %.sroa.15.2.i.i = phi i8 [ %.sroa.15.1.i.i, %._crit_edge.i.i.i ], [ %50, %49 ], [ %.sroa.15.1.i.i, %54 ]
  %.sroa.7.1.i.i = phi i8 [ 0, %._crit_edge.i.i.i ], [ %40, %49 ], [ %55, %54 ]
  %.sroa.0.2.i.i = phi ptr [ %.sroa.0.1.i.i, %._crit_edge.i.i.i ], [ %.sroa.0.1.i.i, %49 ], [ %.sroa.0.019.i.i, %54 ]
  %.2.i.i.i = phi i64 [ %.09.lcssa.i.i.i, %._crit_edge.i.i.i ], [ %53, %49 ], [ %27, %54 ]
  %56 = and i64 %.2.i.i.i, %14
  %57 = getelementptr inbounds nuw float, ptr %.01220.i.i, i64 %56
  %58 = load float, ptr %57, align 4, !tbaa !94
  %59 = fadd float %.01121.i.i, %58
  %60 = getelementptr inbounds nuw float, ptr %.01220.i.i, i64 %16
  %61 = add nuw i64 %.022.i.i, 1
  %exitcond.not.i.i = icmp eq i64 %61, %9
  br i1 %exitcond.not.i.i, label %_ZN5faiss20distance_single_codeINS_16PQDecoderGenericEEEfmmPKfPKh.exit, label %20, !llvm.loop !154

_ZN5faiss20distance_single_codeINS_16PQDecoderGenericEEEfmmPKfPKh.exit: ; preds = %_ZN5faiss16PQDecoderGeneric6decodeEv.exit.i.i, %2
  %.011.lcssa.i.i = phi float [ 0.000000e+00, %2 ], [ %59, %_ZN5faiss16PQDecoderGeneric6decodeEv.exit.i.i ]
  ret float %.011.lcssa.i.i
}